; Function Attrs: mustprogress uwtable
define dso_local void @_ZN9SiblingMC7unlinkAEv(ptr noundef nonnull align 8 dereferenceable(88) %0) local_unnamed_addr #4 align 2 {
  %2 = getelementptr inbounds i8, ptr %0, i64 40
  %3 = load ptr, ptr %2, align 8
  %4 = getelementptr inbounds i8, ptr %3, i64 192
  %5 = getelementptr inbounds i8, ptr %0, i64 48
  %6 = tail call noundef i64 @_ZNSt8_Rb_treeIP10LogicMTaskS1_St9_IdentityIS1_ESt4lessIS1_ESaIS1_EE5eraseERKS1_(ptr noundef nonnull align 8 dereferenceable(48) %4, ptr noundef nonnull align 8 dereferenceable(8) %5)
  %7 = load ptr, ptr %2, align 8
  %8 = getelementptr inbounds i8, ptr %7, i64 240
  %9 = getelementptr inbounds i8, ptr %0, i64 56
  %10 = load ptr, ptr %9, align 8
  %.not.i = icmp eq ptr %10, null
  %.phi.trans.insert.i = getelementptr inbounds i8, ptr %0, i64 64
  %.pre.i = load ptr, ptr %.phi.trans.insert.i, align 8
  br i1 %.not.i, label %._crit_edge.i, label %11

11:                                               ; preds = %1
  %12 = getelementptr inbounds i8, ptr %10, i64 64
  store ptr %.pre.i, ptr %12, align 8
  br label %._crit_edge.i

._crit_edge.i:                                    ; preds = %11, %1
  %.not18.i = icmp eq ptr %.pre.i, null
  br i1 %.not18.i, label %16, label %13

13:                                               ; preds = %._crit_edge.i
  %14 = load ptr, ptr %9, align 8
  %15 = getelementptr inbounds i8, ptr %.pre.i, i64 56
  store ptr %14, ptr %15, align 8
  br label %16

16:                                               ; preds = %13, %._crit_edge.i
  %17 = load ptr, ptr %8, align 8
  %18 = icmp eq ptr %17, %0
  br i1 %18, label %19, label %21

19:                                               ; preds = %16
  %20 = load ptr, ptr %9, align 8
  store ptr %20, ptr %8, align 8
  br label %21

21:                                               ; preds = %19, %16
  %22 = getelementptr inbounds i8, ptr %7, i64 248
  %23 = load ptr, ptr %22, align 8
  %24 = icmp eq ptr %23, %0
  br i1 %24, label %25, label %_ZN6V3ListI9SiblingMCXadL_ZNS0_6aLinksEvEES0_E6unlinkEPKS0_.exit

25:                                               ; preds = %21
  %26 = load ptr, ptr %.phi.trans.insert.i, align 8
  store ptr %26, ptr %22, align 8
  br label %_ZN6V3ListI9SiblingMCXadL_ZNS0_6aLinksEvEES0_E6unlinkEPKS0_.exit

_ZN6V3ListI9SiblingMCXadL_ZNS0_6aLinksEvEES0_E6unlinkEPKS0_.exit: ; preds = %21, %25
  tail call void @llvm.memset.p0.i64(ptr noundef nonnull align 8 dereferenceable(16) %9, i8 0, i64 16, i1 false)
  ret void
}